; Function Attrs: uwtable
define range(i32 -4, 1) i32 @faiss_IndexReplicas_new(ptr noundef writeonly captures(none) %0, i64 noundef %1) local_unnamed_addr #6 personality ptr @__gxx_personality_v0 {
  %3 = alloca %"class.std::__exception_ptr::exception_ptr", align 8
  %4 = alloca %"class.std::__exception_ptr::exception_ptr", align 8
  %5 = alloca %"class.std::__exception_ptr::exception_ptr", align 8
  %6 = alloca %"class.std::__exception_ptr::exception_ptr", align 8
  %7 = alloca %"class.std::runtime_error", align 8
  %8 = alloca %"class.std::__exception_ptr::exception_ptr", align 8
  %9 = alloca %"class.std::exception", align 8
  %10 = alloca %"class.std::__exception_ptr::exception_ptr", align 8
  %11 = alloca %"class.faiss::FaissException", align 8
  %12 = invoke noalias noundef nonnull dereferenceable(72) ptr @_Znwm(i64 noundef 72) #27
          to label %13 unwind label %15

13:                                               ; preds = %2
  invoke void @_ZN5faiss21IndexReplicasTemplateINS_5IndexEEC1Elb(ptr noundef nonnull align 8 dereferenceable(65) %12, i64 noundef %1, i1 noundef zeroext true)
          to label %14 unwind label %17

14:                                               ; preds = %13
  store ptr %12, ptr %0, align 8, !tbaa !23
  br label %51

15:                                               ; preds = %2
  %16 = landingpad { ptr, i32 }
          catch ptr @_ZTIN5faiss14FaissExceptionE
          catch ptr @_ZTISt9exception
          catch ptr null
  br label %19

17:                                               ; preds = %13
  %18 = landingpad { ptr, i32 }
          catch ptr @_ZTIN5faiss14FaissExceptionE
          catch ptr @_ZTISt9exception
          catch ptr null
  tail call void @_ZdlPvm(ptr noundef nonnull %12, i64 noundef 72) #28
  br label %19

19:                                               ; preds = %17, %15
  %.pn = phi { ptr, i32 } [ %18, %17 ], [ %16, %15 ]
  %.011 = extractvalue { ptr, i32 } %.pn, 0
  %.012 = extractvalue { ptr, i32 } %.pn, 1
  %20 = tail call i32 @llvm.eh.typeid.for.p0(ptr nonnull @_ZTIN5faiss14FaissExceptionE) #26
  %21 = icmp eq i32 %.012, %20
  br i1 %21, label %22, label %30

22:                                               ; preds = %19
  %23 = tail call ptr @__cxa_begin_catch(ptr %.011) #26
  call void @llvm.lifetime.start.p0(i64 8, ptr nonnull %10) #26
  invoke void @_ZN5faiss14FaissExceptionC2ERKS0_(ptr noundef nonnull align 8 dereferenceable(40) %11, ptr noundef nonnull align 8 dereferenceable(40) %23)
          to label %24 unwind label %49

24:                                               ; preds = %22
  call void @_ZSt18make_exception_ptrIN5faiss14FaissExceptionEENSt15__exception_ptr13exception_ptrET_(ptr dead_on_unwind nonnull writable sret(%"class.std::__exception_ptr::exception_ptr") align 8 %10, ptr noundef nonnull %11) #26
  %.not.i = icmp eq ptr @_ZTH20faiss_last_exception, null
  br i1 %.not.i, label %_ZTW20faiss_last_exception.exit, label %25

25:                                               ; preds = %24
  call void @_ZTH20faiss_last_exception()
  br label %_ZTW20faiss_last_exception.exit

_ZTW20faiss_last_exception.exit:                  ; preds = %24, %25
  %26 = call noundef align 8 ptr @llvm.threadlocal.address.p0(ptr align 8 @faiss_last_exception)
  call void @llvm.lifetime.start.p0(i64 8, ptr nonnull %5) #26
  %27 = load ptr, ptr %10, align 8, !tbaa !25
  store ptr null, ptr %10, align 8, !tbaa !25
  %28 = load ptr, ptr %26, align 8, !tbaa !25
  store ptr %28, ptr %5, align 8, !tbaa !25
  store ptr %27, ptr %26, align 8, !tbaa !25
  %.not.i.i = icmp eq ptr %28, null
  br i1 %.not.i.i, label %_ZNSt15__exception_ptr13exception_ptraSEOS0_.exit.thread, label %_ZNSt15__exception_ptr13exception_ptraSEOS0_.exit

_ZNSt15__exception_ptr13exception_ptraSEOS0_.exit.thread: ; preds = %_ZTW20faiss_last_exception.exit
  call void @llvm.lifetime.end.p0(i64 8, ptr nonnull %5) #26
  br label %_ZNSt15__exception_ptr13exception_ptrD2Ev.exit

_ZNSt15__exception_ptr13exception_ptraSEOS0_.exit: ; preds = %_ZTW20faiss_last_exception.exit
  call void @_ZNSt15__exception_ptr13exception_ptr10_M_releaseEv(ptr noundef nonnull align 8 dereferenceable(8) %5) #26
  %.pr = load ptr, ptr %10, align 8, !tbaa !25
  call void @llvm.lifetime.end.p0(i64 8, ptr nonnull %5) #26
  %.not.i17 = icmp eq ptr %.pr, null
  br i1 %.not.i17, label %_ZNSt15__exception_ptr13exception_ptrD2Ev.exit, label %29

29:                                               ; preds = %_ZNSt15__exception_ptr13exception_ptraSEOS0_.exit
  call void @_ZNSt15__exception_ptr13exception_ptr10_M_releaseEv(ptr noundef nonnull align 8 dereferenceable(8) %10) #26
  br label %_ZNSt15__exception_ptr13exception_ptrD2Ev.exit

_ZNSt15__exception_ptr13exception_ptrD2Ev.exit:   ; preds = %_ZNSt15__exception_ptr13exception_ptraSEOS0_.exit.thread, %_ZNSt15__exception_ptr13exception_ptraSEOS0_.exit, %29
  call void @_ZN5faiss14FaissExceptionD2Ev(ptr noundef nonnull align 8 dereferenceable(40) %11) #26
  call void @llvm.lifetime.end.p0(i64 8, ptr nonnull %10) #26
  call void @__cxa_end_catch()
  br label %51

30:                                               ; preds = %19
  %31 = tail call i32 @llvm.eh.typeid.for.p0(ptr nonnull @_ZTISt9exception) #26
  %32 = icmp eq i32 %.012, %31
  %33 = tail call ptr @__cxa_begin_catch(ptr %.011) #26
  br i1 %32, label %34, label %40

34:                                               ; preds = %30
  call void @llvm.lifetime.start.p0(i64 8, ptr nonnull %8) #26
  store ptr getelementptr inbounds nuw inrange(-16, 24) (i8, ptr @_ZTVSt9exception, i64 16), ptr %9, align 8, !tbaa !3
  call void @_ZSt18make_exception_ptrISt9exceptionENSt15__exception_ptr13exception_ptrET_(ptr dead_on_unwind nonnull writable sret(%"class.std::__exception_ptr::exception_ptr") align 8 %8, ptr noundef nonnull %9) #26
  %.not.i18 = icmp eq ptr @_ZTH20faiss_last_exception, null
  br i1 %.not.i18, label %_ZTW20faiss_last_exception.exit19, label %35

35:                                               ; preds = %34
  call void @_ZTH20faiss_last_exception()
  br label %_ZTW20faiss_last_exception.exit19

_ZTW20faiss_last_exception.exit19:                ; preds = %34, %35
  %36 = call noundef align 8 ptr @llvm.threadlocal.address.p0(ptr align 8 @faiss_last_exception)
  call void @llvm.lifetime.start.p0(i64 8, ptr nonnull %4) #26
  %37 = load ptr, ptr %8, align 8, !tbaa !25
  store ptr null, ptr %8, align 8, !tbaa !25
  %38 = load ptr, ptr %36, align 8, !tbaa !25
  store ptr %38, ptr %4, align 8, !tbaa !25
  store ptr %37, ptr %36, align 8, !tbaa !25
  %.not.i.i20 = icmp eq ptr %38, null
  br i1 %.not.i.i20, label %_ZNSt15__exception_ptr13exception_ptraSEOS0_.exit21.thread, label %_ZNSt15__exception_ptr13exception_ptraSEOS0_.exit21

_ZNSt15__exception_ptr13exception_ptraSEOS0_.exit21.thread: ; preds = %_ZTW20faiss_last_exception.exit19
  call void @llvm.lifetime.end.p0(i64 8, ptr nonnull %4) #26
  br label %_ZNSt15__exception_ptr13exception_ptrD2Ev.exit23

_ZNSt15__exception_ptr13exception_ptraSEOS0_.exit21: ; preds = %_ZTW20faiss_last_exception.exit19
  call void @_ZNSt15__exception_ptr13exception_ptr10_M_releaseEv(ptr noundef nonnull align 8 dereferenceable(8) %4) #26
  %.pr31 = load ptr, ptr %8, align 8, !tbaa !25
  call void @llvm.lifetime.end.p0(i64 8, ptr nonnull %4) #26
  %.not.i22 = icmp eq ptr %.pr31, null
  br i1 %.not.i22, label %_ZNSt15__exception_ptr13exception_ptrD2Ev.exit23, label %39

39:                                               ; preds = %_ZNSt15__exception_ptr13exception_ptraSEOS0_.exit21
  call void @_ZNSt15__exception_ptr13exception_ptr10_M_releaseEv(ptr noundef nonnull align 8 dereferenceable(8) %8) #26
  br label %_ZNSt15__exception_ptr13exception_ptrD2Ev.exit23

_ZNSt15__exception_ptr13exception_ptrD2Ev.exit23: ; preds = %_ZNSt15__exception_ptr13exception_ptraSEOS0_.exit21.thread, %_ZNSt15__exception_ptr13exception_ptraSEOS0_.exit21, %39
  call void @_ZNSt9exceptionD1Ev(ptr noundef nonnull align 8 dereferenceable(8) %9) #26
  call void @llvm.lifetime.end.p0(i64 8, ptr nonnull %8) #26
  call void @__cxa_end_catch()
  br label %51

40:                                               ; preds = %30
  call void @llvm.lifetime.start.p0(i64 8, ptr nonnull %6) #26
  invoke void @_ZNSt13runtime_errorC1EPKc(ptr noundef nonnull align 8 dereferenceable(16) %7, ptr noundef nonnull @.str)
          to label %41 unwind label %47

41:                                               ; preds = %40
  call void @_ZSt18make_exception_ptrISt13runtime_errorENSt15__exception_ptr13exception_ptrET_(ptr dead_on_unwind nonnull writable sret(%"class.std::__exception_ptr::exception_ptr") align 8 %6, ptr noundef nonnull %7) #26
  %.not.i24 = icmp eq ptr @_ZTH20faiss_last_exception, null
  br i1 %.not.i24, label %_ZTW20faiss_last_exception.exit25, label %42

42:                                               ; preds = %41
  call void @_ZTH20faiss_last_exception()
  br label %_ZTW20faiss_last_exception.exit25

_ZTW20faiss_last_exception.exit25:                ; preds = %41, %42
  %43 = call noundef align 8 ptr @llvm.threadlocal.address.p0(ptr align 8 @faiss_last_exception)
  call void @llvm.lifetime.start.p0(i64 8, ptr nonnull %3) #26
  %44 = load ptr, ptr %6, align 8, !tbaa !25
  store ptr null, ptr %6, align 8, !tbaa !25
  %45 = load ptr, ptr %43, align 8, !tbaa !25
  store ptr %45, ptr %3, align 8, !tbaa !25
  store ptr %44, ptr %43, align 8, !tbaa !25
  %.not.i.i26 = icmp eq ptr %45, null
  br i1 %.not.i.i26, label %_ZNSt15__exception_ptr13exception_ptraSEOS0_.exit27.thread, label %_ZNSt15__exception_ptr13exception_ptraSEOS0_.exit27

_ZNSt15__exception_ptr13exception_ptraSEOS0_.exit27.thread: ; preds = %_ZTW20faiss_last_exception.exit25
  call void @llvm.lifetime.end.p0(i64 8, ptr nonnull %3) #26
  br label %_ZNSt15__exception_ptr13exception_ptrD2Ev.exit29

_ZNSt15__exception_ptr13exception_ptraSEOS0_.exit27: ; preds = %_ZTW20faiss_last_exception.exit25
  call void @_ZNSt15__exception_ptr13exception_ptr10_M_releaseEv(ptr noundef nonnull align 8 dereferenceable(8) %3) #26
  %.pr33 = load ptr, ptr %6, align 8, !tbaa !25
  call void @llvm.lifetime.end.p0(i64 8, ptr nonnull %3) #26
  %.not.i28 = icmp eq ptr %.pr33, null
  br i1 %.not.i28, label %_ZNSt15__exception_ptr13exception_ptrD2Ev.exit29, label %46

46:                                               ; preds = %_ZNSt15__exception_ptr13exception_ptraSEOS0_.exit27
  call void @_ZNSt15__exception_ptr13exception_ptr10_M_releaseEv(ptr noundef nonnull align 8 dereferenceable(8) %6) #26
  br label %_ZNSt15__exception_ptr13exception_ptrD2Ev.exit29

_ZNSt15__exception_ptr13exception_ptrD2Ev.exit29: ; preds = %_ZNSt15__exception_ptr13exception_ptraSEOS0_.exit27.thread, %_ZNSt15__exception_ptr13exception_ptraSEOS0_.exit27, %46
  call void @_ZNSt13runtime_errorD1Ev(ptr noundef nonnull align 8 dereferenceable(16) %7) #26
  call void @llvm.lifetime.end.p0(i64 8, ptr nonnull %6) #26
  call void @__cxa_end_catch()
  br label %51

47:                                               ; preds = %40
  %48 = landingpad { ptr, i32 }
          cleanup
  call void @llvm.lifetime.end.p0(i64 8, ptr nonnull %6) #26
  invoke void @__cxa_end_catch()
          to label %52 unwind label %53

49:                                               ; preds = %22
  %50 = landingpad { ptr, i32 }
          cleanup
  call void @llvm.lifetime.end.p0(i64 8, ptr nonnull %10) #26
  invoke void @__cxa_end_catch()
          to label %52 unwind label %53

51:                                               ; preds = %14, %_ZNSt15__exception_ptr13exception_ptrD2Ev.exit29, %_ZNSt15__exception_ptr13exception_ptrD2Ev.exit23, %_ZNSt15__exception_ptr13exception_ptrD2Ev.exit
  %.0 = phi i32 [ 0, %14 ], [ -2, %_ZNSt15__exception_ptr13exception_ptrD2Ev.exit ], [ -4, %_ZNSt15__exception_ptr13exception_ptrD2Ev.exit23 ], [ -1, %_ZNSt15__exception_ptr13exception_ptrD2Ev.exit29 ]
  ret i32 %.0

52:                                               ; preds = %49, %47
  %.pn15 = phi { ptr, i32 } [ %48, %47 ], [ %50, %49 ]
  resume { ptr, i32 } %.pn15

53:                                               ; preds = %49, %47
  %54 = landingpad { ptr, i32 }
          catch ptr null
  %55 = extractvalue { ptr, i32 } %54, 0
  call void @__clang_call_terminate(ptr %55) #29
  unreachable
}